target datalayout = "e-m:e-p270:32:32-p271:32:32-p272:64:64-i64:64-i128:128-f80:128-n8:16:32:64-S128"
target triple = "x86_64-pc-linux-gnu"

; Function Attrs: nounwind uwtable
define dso_local ptr @raxGetData(ptr noundef %0) #0 {
  %2 = alloca ptr, align 8
  %3 = alloca ptr, align 8
  %4 = alloca ptr, align 8
  %5 = alloca ptr, align 8
  store ptr %0, ptr %3, align 8, !tbaa !11
  %6 = load ptr, ptr %3, align 8, !tbaa !11
  %7 = load i32, ptr %6, align 4
  %8 = lshr i32 %7, 1
  %9 = and i32 %8, 1
  %10 = icmp ne i32 %9, 0
  br i1 %10, label %11, label %12

11:                                               ; preds = %1
  store ptr null, ptr %2, align 8
  br label %64

12:                                               ; preds = %1
  call void @llvm.lifetime.start.p0(i64 8, ptr %4) #13
  %13 = load ptr, ptr %3, align 8, !tbaa !11
  %14 = load ptr, ptr %3, align 8, !tbaa !11
  %15 = load i32, ptr %14, align 4
  %16 = lshr i32 %15, 3
  %17 = zext i32 %16 to i64
  %18 = add i64 4, %17
  %19 = load ptr, ptr %3, align 8, !tbaa !11
  %20 = load i32, ptr %19, align 4
  %21 = lshr i32 %20, 3
  %22 = add nsw i32 %21, 4
  %23 = sext i32 %22 to i64
  %24 = urem i64 %23, 8
  %25 = sub i64 8, %24
  %26 = and i64 %25, 7
  %27 = add i64 %18, %26
  %28 = load ptr, ptr %3, align 8, !tbaa !11
  %29 = load i32, ptr %28, align 4
  %30 = lshr i32 %29, 2
  %31 = and i32 %30, 1
  %32 = icmp ne i32 %31, 0
  br i1 %32, label %33, label %34

33:                                               ; preds = %12
  br label %40

34:                                               ; preds = %12
  %35 = load ptr, ptr %3, align 8, !tbaa !11
  %36 = load i32, ptr %35, align 4
  %37 = lshr i32 %36, 3
  %38 = zext i32 %37 to i64
  %39 = mul i64 8, %38
  br label %40

40:                                               ; preds = %34, %33
  %41 = phi i64 [ 8, %33 ], [ %39, %34 ]
  %42 = add i64 %27, %41
  %43 = load ptr, ptr %3, align 8, !tbaa !11
  %44 = load i32, ptr %43, align 4
  %45 = and i32 %44, 1
  %46 = icmp ne i32 %45, 0
  br i1 %46, label %47, label %54

47:                                               ; preds = %40
  %48 = load ptr, ptr %3, align 8, !tbaa !11
  %49 = load i32, ptr %48, align 4
  %50 = lshr i32 %49, 1
  %51 = and i32 %50, 1
  %52 = icmp ne i32 %51, 0
  %53 = xor i1 %52, true
  br label %54

54:                                               ; preds = %47, %40
  %55 = phi i1 [ false, %40 ], [ %53, %47 ]
  %56 = zext i1 %55 to i32
  %57 = sext i32 %56 to i64
  %58 = mul i64 %57, 8
  %59 = add i64 %42, %58
  %60 = getelementptr inbounds nuw i8, ptr %13, i64 %59
  %61 = getelementptr inbounds i8, ptr %60, i64 -8
  store ptr %61, ptr %4, align 8, !tbaa !16
  call void @llvm.lifetime.start.p0(i64 8, ptr %5) #13
  %62 = load ptr, ptr %4, align 8, !tbaa !16
  call void @llvm.memcpy.p0.p0.i64(ptr align 8 %5, ptr align 8 %62, i64 8, i1 false)
  %63 = load ptr, ptr %5, align 8, !tbaa !16
  store ptr %63, ptr %2, align 8
  call void @llvm.lifetime.end.p0(i64 8, ptr %5) #13
  call void @llvm.lifetime.end.p0(i64 8, ptr %4) #13
  br label %64

64:                                               ; preds = %54, %11
  %65 = load ptr, ptr %2, align 8
  ret ptr %65
}