; Function Attrs: mustprogress nofree norecurse nosync nounwind willreturn memory(argmem: read) uwtable
define dso_local ptr @raxGetData(ptr noundef readonly captures(none) %0) local_unnamed_addr #8 {
  %2 = load i32, ptr %0, align 4
  %3 = and i32 %2, 2
  %.not = icmp eq i32 %3, 0
  br i1 %.not, label %4, label %21

4:                                                ; preds = %1
  %5 = lshr i32 %2, 3
  %6 = zext nneg i32 %5 to i64
  %7 = xor i32 %5, 3
  %.neg = add nuw nsw i32 %7, 1
  %8 = and i32 %.neg, 7
  %9 = zext nneg i32 %8 to i64
  %10 = and i32 %2, 4
  %.not11 = icmp eq i32 %10, 0
  %11 = shl nuw nsw i64 %6, 3
  %spec.select = select i1 %.not11, i64 %11, i64 8
  %12 = shl i32 %2, 3
  %13 = and i32 %12, 8
  %14 = zext nneg i32 %13 to i64
  %15 = getelementptr inbounds nuw i8, ptr %0, i64 %6
  %16 = getelementptr inbounds nuw i8, ptr %15, i64 4
  %17 = getelementptr inbounds nuw i8, ptr %16, i64 %9
  %18 = getelementptr inbounds nuw i8, ptr %17, i64 %spec.select
  %19 = getelementptr inbounds nuw i8, ptr %18, i64 %14
  %20 = getelementptr inbounds i8, ptr %19, i64 -8
  %.0.copyload = load ptr, ptr %20, align 8
  br label %21

21:                                               ; preds = %1, %4
  %.0 = phi ptr [ %.0.copyload, %4 ], [ null, %1 ]
  ret ptr %.0
}